target datalayout = "e-m:e-p270:32:32-p271:32:32-p272:64:64-i64:64-i128:128-f80:128-n8:16:32:64-S128"
target triple = "x86_64-pc-linux-gnu"

%"class.llvm::MachineFunction" = type <{ ptr, ptr, ptr, ptr, ptr, ptr, ptr, ptr, ptr, ptr, ptr, ptr, %"class.std::vector", i32, [4 x i8], %"class.llvm::BumpPtrAllocatorImpl", %"class.llvm::Recycler", %"class.llvm::ArrayRecycler", %"class.llvm::Recycler.11", %"class.llvm::iplist", i32, %"struct.llvm::Align", i8, i8, i8, %"class.llvm::MachineFunctionProperties", %"class.std::unique_ptr", %"class.std::vector.15", %"class.std::vector.20", %"class.std::vector.20", %"class.std::vector.25", %"class.llvm::DenseMap", %"class.llvm::DenseMap.30", %"class.llvm::DenseMap.33", %"class.std::vector.36", i8, i8, i8, i8, i8, i8, [2 x i8], i32, i32, %"class.std::vector.41", %"class.std::vector.46", %"class.std::vector.46", i32, [4 x i8], ptr, ptr, %"class.llvm::DenseMap.51", %"class.llvm::SmallVector.54", i32, [4 x i8], %"class.llvm::SmallVector.59", %"class.llvm::DenseMap.64", i8, [7 x i8] }>
%"class.std::vector" = type { %"struct.std::_Vector_base" }
%"struct.std::_Vector_base" = type { %"struct.std::_Vector_base<llvm::MachineBasicBlock *, std::allocator<llvm::MachineBasicBlock *>>::_Vector_impl" }
%"struct.std::_Vector_base<llvm::MachineBasicBlock *, std::allocator<llvm::MachineBasicBlock *>>::_Vector_impl" = type { %"struct.std::_Vector_base<llvm::MachineBasicBlock *, std::allocator<llvm::MachineBasicBlock *>>::_Vector_impl_data" }
%"struct.std::_Vector_base<llvm::MachineBasicBlock *, std::allocator<llvm::MachineBasicBlock *>>::_Vector_impl_data" = type { ptr, ptr, ptr }
%"class.llvm::BumpPtrAllocatorImpl" = type { ptr, ptr, %"class.llvm::SmallVector", %"class.llvm::SmallVector.1", i64, i64 }
%"class.llvm::SmallVector" = type { %"class.llvm::SmallVectorImpl", %"struct.llvm::SmallVectorStorage" }
%"class.llvm::SmallVectorImpl" = type { %"class.llvm::SmallVectorTemplateBase" }
%"class.llvm::SmallVectorTemplateBase" = type { %"class.llvm::SmallVectorTemplateCommon" }
%"class.llvm::SmallVectorTemplateCommon" = type { %"class.llvm::SmallVectorBase" }
%"class.llvm::SmallVectorBase" = type { ptr, i32, i32 }
%"struct.llvm::SmallVectorStorage" = type { [32 x i8] }
%"class.llvm::SmallVector.1" = type { %"class.llvm::SmallVectorImpl.2" }
%"class.llvm::SmallVectorImpl.2" = type { %"class.llvm::SmallVectorTemplateBase.3" }
%"class.llvm::SmallVectorTemplateBase.3" = type { %"class.llvm::SmallVectorTemplateCommon.4" }
%"class.llvm::SmallVectorTemplateCommon.4" = type { %"class.llvm::SmallVectorBase" }
%"class.llvm::Recycler" = type { ptr }
%"class.llvm::ArrayRecycler" = type { %"class.llvm::SmallVector.6" }
%"class.llvm::SmallVector.6" = type { %"class.llvm::SmallVectorImpl.7", %"struct.llvm::SmallVectorStorage.10" }
%"class.llvm::SmallVectorImpl.7" = type { %"class.llvm::SmallVectorTemplateBase.8" }
%"class.llvm::SmallVectorTemplateBase.8" = type { %"class.llvm::SmallVectorTemplateCommon.9" }
%"class.llvm::SmallVectorTemplateCommon.9" = type { %"class.llvm::SmallVectorBase" }
%"struct.llvm::SmallVectorStorage.10" = type { [64 x i8] }
%"class.llvm::Recycler.11" = type { ptr }
%"class.llvm::iplist" = type { %"class.llvm::iplist_impl" }
%"class.llvm::iplist_impl" = type { %"class.llvm::simple_ilist" }
%"class.llvm::simple_ilist" = type { %"class.llvm::ilist_sentinel" }
%"class.llvm::ilist_sentinel" = type { %"class.llvm::ilist_node_impl" }
%"class.llvm::ilist_node_impl" = type { %"class.llvm::ilist_node_base" }
%"class.llvm::ilist_node_base" = type { %"class.llvm::ilist_detail::node_base_prevnext" }
%"class.llvm::ilist_detail::node_base_prevnext" = type { ptr, ptr }
%"struct.llvm::Align" = type { i8 }
%"class.llvm::MachineFunctionProperties" = type { %"class.std::bitset" }
%"class.std::bitset" = type { %"struct.std::_Base_bitset" }
%"struct.std::_Base_bitset" = type { i64 }
%"class.std::unique_ptr" = type { %"struct.std::__uniq_ptr_data" }
%"struct.std::__uniq_ptr_data" = type { %"class.std::__uniq_ptr_impl" }
%"class.std::__uniq_ptr_impl" = type { %"class.std::tuple" }
%"class.std::tuple" = type { %"struct.std::_Tuple_impl" }
%"struct.std::_Tuple_impl" = type { %"struct.std::_Head_base.14" }
%"struct.std::_Head_base.14" = type { ptr }
%"class.std::vector.15" = type { %"struct.std::_Vector_base.16" }
%"struct.std::_Vector_base.16" = type { %"struct.std::_Vector_base<llvm::MCCFIInstruction, std::allocator<llvm::MCCFIInstruction>>::_Vector_impl" }
%"struct.std::_Vector_base<llvm::MCCFIInstruction, std::allocator<llvm::MCCFIInstruction>>::_Vector_impl" = type { %"struct.std::_Vector_base<llvm::MCCFIInstruction, std::allocator<llvm::MCCFIInstruction>>::_Vector_impl_data" }
%"struct.std::_Vector_base<llvm::MCCFIInstruction, std::allocator<llvm::MCCFIInstruction>>::_Vector_impl_data" = type { ptr, ptr, ptr }
%"class.std::vector.20" = type { %"struct.std::_Vector_base.21" }
%"struct.std::_Vector_base.21" = type { %"struct.std::_Vector_base<llvm::MCSymbol *, std::allocator<llvm::MCSymbol *>>::_Vector_impl" }
%"struct.std::_Vector_base<llvm::MCSymbol *, std::allocator<llvm::MCSymbol *>>::_Vector_impl" = type { %"struct.std::_Vector_base<llvm::MCSymbol *, std::allocator<llvm::MCSymbol *>>::_Vector_impl_data" }
%"struct.std::_Vector_base<llvm::MCSymbol *, std::allocator<llvm::MCSymbol *>>::_Vector_impl_data" = type { ptr, ptr, ptr }
%"class.std::vector.25" = type { %"struct.std::_Vector_base.26" }
%"struct.std::_Vector_base.26" = type { %"struct.std::_Vector_base<llvm::LandingPadInfo, std::allocator<llvm::LandingPadInfo>>::_Vector_impl" }
%"struct.std::_Vector_base<llvm::LandingPadInfo, std::allocator<llvm::LandingPadInfo>>::_Vector_impl" = type { %"struct.std::_Vector_base<llvm::LandingPadInfo, std::allocator<llvm::LandingPadInfo>>::_Vector_impl_data" }
%"struct.std::_Vector_base<llvm::LandingPadInfo, std::allocator<llvm::LandingPadInfo>>::_Vector_impl_data" = type { ptr, ptr, ptr }
%"class.llvm::DenseMap" = type <{ ptr, i32, i32, i32, [4 x i8] }>
%"class.llvm::DenseMap.30" = type <{ ptr, i32, i32, i32, [4 x i8] }>
%"class.llvm::DenseMap.33" = type <{ ptr, i32, i32, i32, [4 x i8] }>
%"class.std::vector.36" = type { %"struct.std::_Vector_base.37" }
%"struct.std::_Vector_base.37" = type { %"struct.std::_Vector_base<std::pair<llvm::MCSymbol *, llvm::MDNode *>, std::allocator<std::pair<llvm::MCSymbol *, llvm::MDNode *>>>::_Vector_impl" }
%"struct.std::_Vector_base<std::pair<llvm::MCSymbol *, llvm::MDNode *>, std::allocator<std::pair<llvm::MCSymbol *, llvm::MDNode *>>>::_Vector_impl" = type { %"struct.std::_Vector_base<std::pair<llvm::MCSymbol *, llvm::MDNode *>, std::allocator<std::pair<llvm::MCSymbol *, llvm::MDNode *>>>::_Vector_impl_data" }
%"struct.std::_Vector_base<std::pair<llvm::MCSymbol *, llvm::MDNode *>, std::allocator<std::pair<llvm::MCSymbol *, llvm::MDNode *>>>::_Vector_impl_data" = type { ptr, ptr, ptr }
%"class.std::vector.41" = type { %"struct.std::_Vector_base.42" }
%"struct.std::_Vector_base.42" = type { %"struct.std::_Vector_base<const llvm::GlobalValue *, std::allocator<const llvm::GlobalValue *>>::_Vector_impl" }
%"struct.std::_Vector_base<const llvm::GlobalValue *, std::allocator<const llvm::GlobalValue *>>::_Vector_impl" = type { %"struct.std::_Vector_base<const llvm::GlobalValue *, std::allocator<const llvm::GlobalValue *>>::_Vector_impl_data" }
%"struct.std::_Vector_base<const llvm::GlobalValue *, std::allocator<const llvm::GlobalValue *>>::_Vector_impl_data" = type { ptr, ptr, ptr }
%"class.std::vector.46" = type { %"struct.std::_Vector_base.47" }
%"struct.std::_Vector_base.47" = type { %"struct.std::_Vector_base<unsigned int, std::allocator<unsigned int>>::_Vector_impl" }
%"struct.std::_Vector_base<unsigned int, std::allocator<unsigned int>>::_Vector_impl" = type { %"struct.std::_Vector_base<unsigned int, std::allocator<unsigned int>>::_Vector_impl_data" }
%"struct.std::_Vector_base<unsigned int, std::allocator<unsigned int>>::_Vector_impl_data" = type { ptr, ptr, ptr }
%"class.llvm::DenseMap.51" = type <{ ptr, i32, i32, i32, [4 x i8] }>
%"class.llvm::SmallVector.54" = type { %"class.llvm::SmallVectorImpl.55", %"struct.llvm::SmallVectorStorage.58" }
%"class.llvm::SmallVectorImpl.55" = type { %"class.llvm::SmallVectorTemplateBase.56" }
%"class.llvm::SmallVectorTemplateBase.56" = type { %"class.llvm::SmallVectorTemplateCommon.57" }
%"class.llvm::SmallVectorTemplateCommon.57" = type { %"class.llvm::SmallVectorBase" }
%"struct.llvm::SmallVectorStorage.58" = type { [128 x i8] }
%"class.llvm::SmallVector.59" = type { %"class.llvm::SmallVectorImpl.60", %"struct.llvm::SmallVectorStorage.63" }
%"class.llvm::SmallVectorImpl.60" = type { %"class.llvm::SmallVectorTemplateBase.61" }
%"class.llvm::SmallVectorTemplateBase.61" = type { %"class.llvm::SmallVectorTemplateCommon.62" }
%"class.llvm::SmallVectorTemplateCommon.62" = type { %"class.llvm::SmallVectorBase" }
%"struct.llvm::SmallVectorStorage.63" = type { [160 x i8] }
%"class.llvm::DenseMap.64" = type <{ ptr, i32, i32, i32, [4 x i8] }>
%"class.llvm::Register" = type { i32 }
%"class.llvm::ArrayRef.197" = type { ptr, i64 }
%"class.llvm::MachineInstrBundleIterator" = type { %"class.llvm::ilist_iterator" }
%"class.llvm::ilist_iterator" = type { ptr }
%"class.llvm::MVT" = type { i16 }
%"class.llvm::MachineIRBuilder" = type { ptr, %"struct.llvm::MachineIRBuilderState" }
%"struct.llvm::MachineIRBuilderState" = type { ptr, ptr, ptr, %"class.llvm::DebugLoc", ptr, ptr, ptr, %"class.llvm::MachineInstrBundleIterator", ptr, ptr }
%"class.llvm::DebugLoc" = type { %"class.llvm::TypedTrackingMDRef" }
%"class.llvm::TypedTrackingMDRef" = type { %"class.llvm::TrackingMDRef" }
%"class.llvm::TrackingMDRef" = type { ptr }
%"class.llvm::TargetLoweringBase" = type <{ ptr, ptr, i8, i8, [6 x i8], %"class.llvm::DenseMap.158", i8, [3 x i8], i32, i32, i32, i8, %"struct.llvm::Align", %"struct.llvm::Align", %"struct.llvm::Align", %"struct.llvm::Align", [3 x i8], i32, i32, i32, i32, i32, i8, [3 x i8], %"class.llvm::Register", [4 x i8], [233 x ptr], [233 x i16], [233 x %"class.llvm::MVT"], [4 x i8], [233 x ptr], [233 x i8], i8, [233 x %"class.llvm::MVT"], [233 x [491 x i8]], i8, [233 x [233 x i16]], [233 x [233 x i16]], [233 x [233 x i8]], i8, [233 x [5 x i16]], [24 x [30 x i32]], %"class.llvm::TargetLoweringBase::ValueTypeActionImpl", [62 x i8], i8, %"class.std::map", %"struct.llvm::RTLIB::RuntimeLibcallsInfo", [700 x i32], i32, i32, i32, i32, i32, i32, i32, i32, i32, i32, i8, i8, i8, [5 x i8] }>
%"class.llvm::DenseMap.158" = type <{ ptr, i32, i32, i32, [4 x i8] }>
%"class.llvm::TargetLoweringBase::ValueTypeActionImpl" = type { [233 x i8] }
%"class.std::map" = type { %"class.std::_Rb_tree" }
%"class.std::_Rb_tree" = type { %"struct.std::_Rb_tree<std::pair<unsigned int, llvm::MVT::SimpleValueType>, std::pair<const std::pair<unsigned int, llvm::MVT::SimpleValueType>, llvm::MVT::SimpleValueType>, std::_Select1st<std::pair<const std::pair<unsigned int, llvm::MVT::SimpleValueType>, llvm::MVT::SimpleValueType>>, std::less<std::pair<unsigned int, llvm::MVT::SimpleValueType>>>::_Rb_tree_impl" }
%"struct.std::_Rb_tree<std::pair<unsigned int, llvm::MVT::SimpleValueType>, std::pair<const std::pair<unsigned int, llvm::MVT::SimpleValueType>, llvm::MVT::SimpleValueType>, std::_Select1st<std::pair<const std::pair<unsigned int, llvm::MVT::SimpleValueType>, llvm::MVT::SimpleValueType>>, std::less<std::pair<unsigned int, llvm::MVT::SimpleValueType>>>::_Rb_tree_impl" = type { [8 x i8], %"struct.std::_Rb_tree_header" }
%"struct.std::_Rb_tree_header" = type { %"struct.std::_Rb_tree_node_base", i64 }
%"struct.std::_Rb_tree_node_base" = type { i32, ptr, ptr, ptr }
%"struct.llvm::RTLIB::RuntimeLibcallsInfo" = type { [701 x ptr], [700 x i32] }

; Function Attrs: mustprogress nounwind uwtable
define linkonce_odr hidden noundef i32 @_ZNK4llvm5RTLIB19RuntimeLibcallsInfo21getLibcallCallingConvENS0_7LibcallE(ptr noundef nonnull align 8 dereferenceable(8408) %0, i32 noundef %1) #0 comdat align 2 {
  %3 = alloca ptr, align 8
  %4 = alloca i32, align 4
  store ptr %0, ptr %3, align 8
  store i32 %1, ptr %4, align 4
  %5 = load ptr, ptr %3, align 8
  %6 = getelementptr inbounds nuw %"struct.llvm::RTLIB::RuntimeLibcallsInfo", ptr %5, i32 0, i32 1
  %7 = load i32, ptr %4, align 4
  %8 = zext i32 %7 to i64
  %9 = getelementptr inbounds [700 x i32], ptr %6, i64 0, i64 %8
  %10 = load i32, ptr %9, align 4
  ret i32 %10
}

; Function Attrs: mustprogress nounwind uwtable
define linkonce_odr hidden noundef ptr @_ZNK4llvm5RTLIB19RuntimeLibcallsInfo14getLibcallNameENS0_7LibcallE(ptr noundef nonnull align 8 dereferenceable(8408) %0, i32 noundef %1) #0 comdat align 2 {
  %3 = alloca ptr, align 8
  %4 = alloca i32, align 4
  store ptr %0, ptr %3, align 8
  store i32 %1, ptr %4, align 4
  %5 = load ptr, ptr %3, align 8
  %6 = getelementptr inbounds nuw %"struct.llvm::RTLIB::RuntimeLibcallsInfo", ptr %5, i32 0, i32 0
  %7 = load i32, ptr %4, align 4
  %8 = zext i32 %7 to i64
  %9 = getelementptr inbounds [701 x ptr], ptr %6, i64 0, i64 %8
  %10 = load ptr, ptr %9, align 8
  ret ptr %10
}

; Function Attrs: mustprogress nounwind uwtable
define linkonce_odr hidden noundef i32 @_ZNK4llvm18TargetLoweringBase21getLibcallCallingConvENS_5RTLIB7LibcallE(ptr noundef nonnull align 8 dereferenceable(408123) %0, i32 noundef %1) #0 comdat align 2 {
  %3 = alloca ptr, align 8
  %4 = alloca i32, align 4
  store ptr %0, ptr %3, align 8
  store i32 %1, ptr %4, align 4
  %5 = load ptr, ptr %3, align 8
  %6 = getelementptr inbounds nuw %"class.llvm::TargetLoweringBase", ptr %5, i32 0, i32 46
  %7 = load i32, ptr %4, align 4
  %8 = call noundef i32 @_ZNK4llvm5RTLIB19RuntimeLibcallsInfo21getLibcallCallingConvENS0_7LibcallE(ptr noundef nonnull align 8 dereferenceable(8408) %6, i32 noundef %7)
  ret i32 %8
}

; Function Attrs: mustprogress nounwind uwtable
define linkonce_odr hidden noundef ptr @_ZNK4llvm18TargetLoweringBase14getLibcallNameENS_5RTLIB7LibcallE(ptr noundef nonnull align 8 dereferenceable(408123) %0, i32 noundef %1) #0 comdat align 2 {
  %3 = alloca ptr, align 8
  %4 = alloca i32, align 4
  store ptr %0, ptr %3, align 8
  store i32 %1, ptr %4, align 4
  %5 = load ptr, ptr %3, align 8
  %6 = getelementptr inbounds nuw %"class.llvm::TargetLoweringBase", ptr %5, i32 0, i32 46
  %7 = load i32, ptr %4, align 4
  %8 = call noundef ptr @_ZNK4llvm5RTLIB19RuntimeLibcallsInfo14getLibcallNameENS0_7LibcallE(ptr noundef nonnull align 8 dereferenceable(8408) %6, i32 noundef %7)
  ret ptr %8
}

; Function Attrs: mustprogress nounwind uwtable
define linkonce_odr hidden noundef nonnull align 8 dereferenceable(288) ptr @_ZNK4llvm15MachineFunction12getSubtargetEv(ptr noundef nonnull align 8 dereferenceable(1041) %0) #0 comdat align 2 {
  %2 = alloca ptr, align 8
  store ptr %0, ptr %2, align 8
  %3 = load ptr, ptr %2, align 8
  %4 = getelementptr inbounds nuw %"class.llvm::MachineFunction", ptr %3, i32 0, i32 2
  %5 = load ptr, ptr %4, align 8
  ret ptr %5
}

; Function Attrs: mustprogress nounwind uwtable
define linkonce_odr hidden noundef nonnull align 8 dereferenceable(1041) ptr @_ZN4llvm16MachineIRBuilder5getMFEv(ptr noundef nonnull align 8 dereferenceable(88) %0) #0 comdat align 2 {
  %2 = alloca ptr, align 8
  store ptr %0, ptr %2, align 8
  %3 = load ptr, ptr %2, align 8
  %4 = getelementptr inbounds nuw %"class.llvm::MachineIRBuilder", ptr %3, i32 0, i32 1
  %5 = getelementptr inbounds nuw %"struct.llvm::MachineIRBuilderState", ptr %4, i32 0, i32 0
  %6 = load ptr, ptr %5, align 8
  ret ptr %6
}

; Function Attrs: mustprogress nounwind uwtable
define dso_local noundef i32 @_ZN4llvm13createLibcallERNS_16MachineIRBuilderENS_5RTLIB7LibcallERKNS_12CallLowering7ArgInfoENS_8ArrayRefIS5_EERNS_20LostDebugLocObserverEPNS_12MachineInstrE(ptr noundef nonnull align 8 dereferenceable(88) %0, i32 noundef %1, ptr noundef nonnull align 8 dereferenceable(164) %2, ptr %3, i64 %4, ptr noundef nonnull align 8 dereferenceable(252) %5, ptr noundef %6) #0 {
  %8 = alloca i32, align 4
  %9 = alloca %"class.llvm::ArrayRef.197", align 8
  %10 = alloca ptr, align 8
  %11 = alloca i32, align 4
  %12 = alloca ptr, align 8
  %13 = alloca ptr, align 8
  %14 = alloca ptr, align 8
  %15 = alloca ptr, align 8
  %16 = alloca ptr, align 8
  %17 = alloca i32, align 4
  %18 = alloca %"class.llvm::ArrayRef.197", align 8
  %19 = getelementptr inbounds nuw { ptr, i64 }, ptr %9, i32 0, i32 0
  store ptr %3, ptr %19, align 8
  %20 = getelementptr inbounds nuw { ptr, i64 }, ptr %9, i32 0, i32 1
  store i64 %4, ptr %20, align 8
  store ptr %0, ptr %10, align 8
  store i32 %1, ptr %11, align 4
  store ptr %2, ptr %12, align 8
  store ptr %5, ptr %13, align 8
  store ptr %6, ptr %14, align 8
  %21 = load ptr, ptr %10, align 8
  %22 = call noundef nonnull align 8 dereferenceable(1041) ptr @_ZN4llvm16MachineIRBuilder5getMFEv(ptr noundef nonnull align 8 dereferenceable(88) %21)
  %23 = call noundef nonnull align 8 dereferenceable(288) ptr @_ZNK4llvm15MachineFunction12getSubtargetEv(ptr noundef nonnull align 8 dereferenceable(1041) %22)
  %24 = load ptr, ptr %23, align 8
  %25 = getelementptr inbounds ptr, ptr %24, i64 18
  %26 = load ptr, ptr %25, align 8
  %27 = call noundef ptr %26(ptr noundef nonnull align 8 dereferenceable(288) %23)
  store ptr %27, ptr %15, align 8
  %28 = load ptr, ptr %15, align 8
  %29 = load i32, ptr %11, align 4
  %30 = call noundef ptr @_ZNK4llvm18TargetLoweringBase14getLibcallNameENS_5RTLIB7LibcallE(ptr noundef nonnull align 8 dereferenceable(408123) %28, i32 noundef %29)
  store ptr %30, ptr %16, align 8
  %31 = load ptr, ptr %16, align 8
  %32 = icmp ne ptr %31, null
  br i1 %32, label %34, label %33

33:                                               ; preds = %7
  store i32 2, ptr %8, align 4
  br label %49

34:                                               ; preds = %7
  %35 = load ptr, ptr %15, align 8
  %36 = load i32, ptr %11, align 4
  %37 = call noundef i32 @_ZNK4llvm18TargetLoweringBase21getLibcallCallingConvENS_5RTLIB7LibcallE(ptr noundef nonnull align 8 dereferenceable(408123) %35, i32 noundef %36)
  store i32 %37, ptr %17, align 4
  %38 = load ptr, ptr %10, align 8
  %39 = load ptr, ptr %16, align 8
  %40 = load ptr, ptr %12, align 8
  call void @llvm.memcpy.p0.p0.i64(ptr align 8 %18, ptr align 8 %9, i64 16, i1 false)
  %41 = load i32, ptr %17, align 4
  %42 = load ptr, ptr %13, align 8
  %43 = load ptr, ptr %14, align 8
  %44 = getelementptr inbounds nuw { ptr, i64 }, ptr %18, i32 0, i32 0
  %45 = load ptr, ptr %44, align 8
  %46 = getelementptr inbounds nuw { ptr, i64 }, ptr %18, i32 0, i32 1
  %47 = load i64, ptr %46, align 8
  %48 = call noundef i32 @_ZN4llvm13createLibcallERNS_16MachineIRBuilderEPKcRKNS_12CallLowering7ArgInfoENS_8ArrayRefIS5_EEjRNS_20LostDebugLocObserverEPNS_12MachineInstrE(ptr noundef nonnull align 8 dereferenceable(88) %38, ptr noundef %39, ptr noundef nonnull align 8 dereferenceable(164) %40, ptr %45, i64 %47, i32 noundef %41, ptr noundef nonnull align 8 dereferenceable(252) %42, ptr noundef %43)
  store i32 %48, ptr %8, align 4
  br label %49

49:                                               ; preds = %34, %33
  %50 = load i32, ptr %8, align 4
  ret i32 %50
}