; Function Attrs: mustprogress nounwind uwtable
define dso_local noundef range(i32 1, 3) i32 @_ZN4llvm13createLibcallERNS_16MachineIRBuilderENS_5RTLIB7LibcallERKNS_12CallLowering7ArgInfoENS_8ArrayRefIS5_EERNS_20LostDebugLocObserverEPNS_12MachineInstrE(ptr noundef nonnull align 8 dereferenceable(88) %0, i32 noundef %1, ptr noundef nonnull align 8 dereferenceable(164) %2, ptr %3, i64 %4, ptr noundef nonnull align 8 dereferenceable(252) %5, ptr noundef %6) local_unnamed_addr #0 {
  %8 = getelementptr inbounds nuw i8, ptr %0, i64 8
  %9 = load ptr, ptr %8, align 8
  %10 = getelementptr inbounds nuw i8, ptr %9, i64 16
  %11 = load ptr, ptr %10, align 8
  %12 = load ptr, ptr %11, align 8
  %13 = getelementptr inbounds i8, ptr %12, i64 144
  %14 = load ptr, ptr %13, align 8
  %15 = tail call noundef ptr %14(ptr noundef nonnull align 8 dereferenceable(288) %11) #18
  %16 = getelementptr inbounds nuw i8, ptr %15, i64 396872
  %17 = zext i32 %1 to i64
  %18 = getelementptr inbounds [701 x ptr], ptr %16, i64 0, i64 %17
  %19 = load ptr, ptr %18, align 8
  %.not = icmp eq ptr %19, null
  br i1 %.not, label %25, label %20

20:                                               ; preds = %7
  %21 = getelementptr inbounds i8, ptr %15, i64 402480
  %22 = getelementptr inbounds [700 x i32], ptr %21, i64 0, i64 %17
  %23 = load i32, ptr %22, align 4
  %24 = tail call noundef i32 @_ZN4llvm13createLibcallERNS_16MachineIRBuilderEPKcRKNS_12CallLowering7ArgInfoENS_8ArrayRefIS5_EEjRNS_20LostDebugLocObserverEPNS_12MachineInstrE(ptr noundef nonnull align 8 dereferenceable(88) %0, ptr noundef nonnull %19, ptr noundef nonnull align 8 dereferenceable(164) %2, ptr %3, i64 %4, i32 noundef %23, ptr noundef nonnull align 8 dereferenceable(252) %5, ptr noundef %6)
  br label %25

25:                                               ; preds = %7, %20
  %.0 = phi i32 [ %24, %20 ], [ 2, %7 ]
  ret i32 %.0
}